; Function Attrs: mustprogress uwtable
define void @_ZN8proxygen19HTTPStaticErrorPageC2ESt10unique_ptrIN5folly5IOBufESt14default_deleteIS3_EERKNSt7__cxx1112basic_stringIcSt11char_traitsIcESaIcEEE(ptr noundef nonnull align 8 dereferenceable(48) %this, ptr nocapture noundef %content, ptr noundef nonnull align 8 dereferenceable(32) %contentType) unnamed_addr #0 align 2 personality ptr @__gxx_personality_v0 {
entry:
  store ptr getelementptr inbounds ({ [5 x ptr] }, ptr @_ZTVN8proxygen19HTTPStaticErrorPageE, i64 0, i32 0, i64 2), ptr %this, align 8
  %content_ = getelementptr inbounds i8, ptr %this, i64 8
  %0 = load i64, ptr %content, align 8
  store i64 %0, ptr %content_, align 8
  store ptr null, ptr %content, align 8
  %contentType_ = getelementptr inbounds i8, ptr %this, i64 16
  invoke void @_ZNSt7__cxx1112basic_stringIcSt11char_traitsIcESaIcEEC1ERKS4_(ptr noundef nonnull align 8 dereferenceable(32) %contentType_, ptr noundef nonnull align 8 dereferenceable(32) %contentType)
          to label %invoke.cont unwind label %lpad

invoke.cont:                                      ; preds = %entry
  ret void

lpad:                                             ; preds = %entry
  %1 = landingpad { ptr, i32 }
          cleanup
  tail call void @_ZNSt10unique_ptrIN5folly5IOBufESt14default_deleteIS1_EED2Ev(ptr noundef nonnull align 8 dereferenceable(8) %content_) #5
  resume { ptr, i32 } %1
}